target datalayout = "e-m:e-p270:32:32-p271:32:32-p272:64:64-i64:64-i128:128-f80:128-n8:16:32:64-S128"
target triple = "x86_64-pc-linux-gnu"

@observableValue = dso_local global i64 0, align 8

; Function Attrs: mustprogress nounwind uwtable
define linkonce_odr dso_local noundef i64 @_ZN32pxrInternal_v0_24__pxrReserved__19ArchGetStopTickTimeEv() #4 comdat {
  %1 = alloca i32, align 4
  %2 = alloca i64, align 8
  store i32 5, ptr %1, align 4
  %3 = load i32, ptr %1, align 4
  switch i32 %3, label %8 [
    i32 1, label %4
    i32 2, label %4
    i32 3, label %5
    i32 4, label %6
    i32 5, label %7
  ]

4:                                                ; preds = %0, %0
  fence syncscope("singlethread") acquire
  br label %8

5:                                                ; preds = %0
  fence syncscope("singlethread") release
  br label %8

6:                                                ; preds = %0
  fence syncscope("singlethread") acq_rel
  br label %8

7:                                                ; preds = %0
  fence syncscope("singlethread") seq_cst
  br label %8

8:                                                ; preds = %7, %6, %5, %4, %0
  %9 = call i64 asm sideeffect "rdtscp\0A\09shl $$32, %rdx\0A\09or %rdx, $0\0A\09lfence", "={ax},~{rcx},~{rdx},~{cc},~{dirflag},~{fpsr},~{flags}"() #3, !srcloc !10
  store i64 %9, ptr %2, align 8
  %10 = load i64, ptr %2, align 8
  ret i64 %10
}

; Function Attrs: mustprogress nounwind uwtable
define dso_local noundef i32 @_Z3Addii(i32 noundef %0, i32 noundef %1) #4 {
  %3 = alloca i32, align 4
  %4 = alloca i32, align 4
  store i32 %0, ptr %3, align 4
  store i32 %1, ptr %4, align 4
  %5 = load i32, ptr %3, align 4
  %6 = load i32, ptr %4, align 4
  %7 = add nsw i32 %5, %6
  ret i32 %7
}

; Function Attrs: mustprogress nounwind uwtable
define linkonce_odr dso_local noundef i64 @_ZN32pxrInternal_v0_24__pxrReserved__20ArchGetStartTickTimeEv() #4 comdat {
  %1 = alloca i32, align 4
  %2 = alloca i64, align 8
  store i32 5, ptr %1, align 4
  %3 = load i32, ptr %1, align 4
  switch i32 %3, label %8 [
    i32 1, label %4
    i32 2, label %4
    i32 3, label %5
    i32 4, label %6
    i32 5, label %7
  ]

4:                                                ; preds = %0, %0
  fence syncscope("singlethread") acquire
  br label %8

5:                                                ; preds = %0
  fence syncscope("singlethread") release
  br label %8

6:                                                ; preds = %0
  fence syncscope("singlethread") acq_rel
  br label %8

7:                                                ; preds = %0
  fence syncscope("singlethread") seq_cst
  br label %8

8:                                                ; preds = %7, %6, %5, %4, %0
  %9 = call i64 asm sideeffect "lfence\0A\09rdtsc\0A\09shl $$32, %rdx\0A\09or %rdx, $0\0A\09lfence", "={ax},~{rdx},~{cc},~{dirflag},~{fpsr},~{flags}"() #3, !srcloc !9
  store i64 %9, ptr %2, align 8
  %10 = load i64, ptr %2, align 8
  ret i64 %10
}

; Function Attrs: mustprogress uwtable
define dso_local noundef i32 @_Z8TestTicki(i32 noundef %0) #5 {
  %2 = alloca i32, align 4
  %3 = alloca i32, align 4
  %4 = alloca i32, align 4
  %5 = alloca i32, align 4
  store i32 %0, ptr %3, align 4
  store i32 0, ptr %4, align 4
  store i32 0, ptr %5, align 4
  br label %6

6:                                                ; preds = %26, %1
  %7 = load i32, ptr %5, align 4
  %8 = load i32, ptr %3, align 4
  %9 = icmp slt i32 %7, %8
  br i1 %9, label %10, label %29

10:                                               ; preds = %6
  store i32 5, ptr %2, align 4
  %11 = load i32, ptr %2, align 4
  switch i32 %11, label %16 [
    i32 1, label %12
    i32 2, label %12
    i32 3, label %13
    i32 4, label %14
    i32 5, label %15
  ]

12:                                               ; preds = %10, %10
  fence syncscope("singlethread") acquire
  br label %16

13:                                               ; preds = %10
  fence syncscope("singlethread") release
  br label %16

14:                                               ; preds = %10
  fence syncscope("singlethread") acq_rel
  br label %16

15:                                               ; preds = %10
  fence syncscope("singlethread") seq_cst
  br label %16

16:                                               ; preds = %15, %14, %13, %12, %10
  %17 = call noundef i64 @_ZN32pxrInternal_v0_24__pxrReserved__20ArchGetStartTickTimeEv()
  %18 = load i64, ptr @observableValue, align 8
  %19 = add i64 %18, %17
  store i64 %19, ptr @observableValue, align 8
  %20 = load i32, ptr %4, align 4
  %21 = load i32, ptr %5, align 4
  %22 = call noundef i32 @_Z3Addii(i32 noundef %20, i32 noundef %21)
  store i32 %22, ptr %4, align 4
  %23 = call noundef i64 @_ZN32pxrInternal_v0_24__pxrReserved__19ArchGetStopTickTimeEv()
  %24 = load i64, ptr @observableValue, align 8
  %25 = add i64 %24, %23
  store i64 %25, ptr @observableValue, align 8
  br label %26

26:                                               ; preds = %16
  %27 = load i32, ptr %5, align 4
  %28 = add nsw i32 %27, 1
  store i32 %28, ptr %5, align 4
  br label %6, !llvm.loop !8

29:                                               ; preds = %6
  %30 = load i32, ptr %4, align 4
  ret i32 %30
}