; Function Attrs: mustprogress uwtable
define dso_local noundef i32 @_Z8TestTicki(i32 noundef %0) local_unnamed_addr #5 {
  %2 = icmp sgt i32 %0, 0
  br i1 %2, label %.lr.ph, label %._crit_edge

.lr.ph:                                           ; preds = %1, %.lr.ph
  %.09 = phi i32 [ %10, %.lr.ph ], [ 0, %1 ]
  %.078 = phi i32 [ %6, %.lr.ph ], [ 0, %1 ]
  fence syncscope("singlethread") seq_cst
  %3 = tail call noundef i64 asm sideeffect "lfence\0A\09rdtsc\0A\09shl $$32, %rdx\0A\09or %rdx, $0\0A\09lfence", "={ax},~{rdx},~{cc},~{dirflag},~{fpsr},~{flags}"() #17, !srcloc !9
  %4 = load i64, ptr @observableValue, align 8
  %5 = add i64 %4, %3
  store i64 %5, ptr @observableValue, align 8
  %6 = add nuw nsw i32 %.09, %.078
  fence syncscope("singlethread") seq_cst
  %7 = tail call noundef i64 asm sideeffect "rdtscp\0A\09shl $$32, %rdx\0A\09or %rdx, $0\0A\09lfence", "={ax},~{rcx},~{rdx},~{cc},~{dirflag},~{fpsr},~{flags}"() #17, !srcloc !6
  %8 = load i64, ptr @observableValue, align 8
  %9 = add i64 %8, %7
  store i64 %9, ptr @observableValue, align 8
  %10 = add nuw nsw i32 %.09, 1
  %exitcond.not = icmp eq i32 %10, %0
  br i1 %exitcond.not, label %._crit_edge, label %.lr.ph, !llvm.loop !10

._crit_edge:                                      ; preds = %.lr.ph, %1
  %.07.lcssa = phi i32 [ 0, %1 ], [ %6, %.lr.ph ]
  ret i32 %.07.lcssa
}